target datalayout = "e-m:e-p270:32:32-p271:32:32-p272:64:64-i64:64-i128:128-f80:128-n8:16:32:64-S128"
target triple = "x86_64-pc-linux-gnu"

%struct.lua_State = type { i8, i8, i8, i8, i8, i8, i8, ptr, ptr, ptr, ptr, ptr, ptr, ptr, ptr, i32, i32, i16, i16, i32, ptr, ptr, ptr, ptr, ptr }
%struct.CallInfo = type { ptr, ptr, ptr, ptr, i32, i32 }
%struct.lua_TValue = type { %union.Value, [1 x i32], i32 }
%union.Value = type { ptr }
%struct.UpVal = type { i8, i8, i8, i8, ptr, %union.anon.3 }
%union.anon.3 = type { %struct.anon.4 }
%struct.anon.4 = type { ptr, ptr, ptr }
%struct.GCheader = type { i8, i8, i8 }
%struct.global_State = type { %struct.stringtable, ptr, ptr, i8, i8, ptr, ptr, ptr, i64, i64, i32, i32, i32, [40 x ptr], [40 x ptr], ptr, ptr, ptr, [256 x i64], ptr, %struct.UpVal, [11 x ptr], [11 x ptr], [21 x ptr], %struct.lua_TValue, %struct.lua_TValue, i32, ptr, i64, [4 x i64], %struct.lua_Callbacks, %struct.lua_ExecutionCallbacks, [128 x ptr], [128 x ptr], [128 x ptr], %struct.GCStats }
%struct.stringtable = type { ptr, i32, i32 }
%struct.lua_Callbacks = type { ptr, ptr, ptr, ptr, ptr, ptr, ptr, ptr, ptr, ptr }
%struct.lua_ExecutionCallbacks = type { ptr, ptr, ptr, ptr, ptr, ptr, ptr }
%struct.GCStats = type { [32 x i32], i32, i32, i64, i64, i64, double, double, double }

@.str.4 = private unnamed_addr constant [17 x i8] c"C stack overflow\00", align 1

; Function Attrs: mustprogress uwtable
define hidden void @_Z16luaD_checkCstackP9lua_State(ptr noundef %0) #2 {
  %2 = alloca ptr, align 8
  %3 = alloca i32, align 4
  store ptr %0, ptr %2, align 8, !tbaa !20
  call void @llvm.lifetime.start.p0(i64 4, ptr %3) #15
  store i32 225, ptr %3, align 4, !tbaa !23
  %4 = load ptr, ptr %2, align 8, !tbaa !20
  %5 = getelementptr inbounds nuw %struct.lua_State, ptr %4, i32 0, i32 17
  %6 = load i16, ptr %5, align 8, !tbaa !72
  %7 = zext i16 %6 to i32
  %8 = icmp eq i32 %7, 200
  br i1 %8, label %9, label %11

9:                                                ; preds = %1
  %10 = load ptr, ptr %2, align 8, !tbaa !20
  call void (ptr, ptr, ...) @_Z14luaG_runerrorLP9lua_StatePKcz(ptr noundef %10, ptr noundef @.str.4) #17
  unreachable

11:                                               ; preds = %1
  %12 = load ptr, ptr %2, align 8, !tbaa !20
  %13 = getelementptr inbounds nuw %struct.lua_State, ptr %12, i32 0, i32 17
  %14 = load i16, ptr %13, align 8, !tbaa !72
  %15 = zext i16 %14 to i32
  %16 = icmp sge i32 %15, 225
  br i1 %16, label %17, label %19

17:                                               ; preds = %11
  %18 = load ptr, ptr %2, align 8, !tbaa !20
  call void @_Z10luaD_throwP9lua_Statei(ptr noundef %18, i32 noundef 5) #17
  unreachable

19:                                               ; preds = %11
  br label %20

20:                                               ; preds = %19
  call void @llvm.lifetime.end.p0(i64 4, ptr %3) #15
  ret void
}

; Function Attrs: mustprogress uwtable
define hidden void @_Z9luaD_callP9lua_StateP10lua_TValuei(ptr noundef %0, ptr noundef %1, i32 noundef %2) #2 {
  %4 = alloca ptr, align 8
  %5 = alloca ptr, align 8
  %6 = alloca i32, align 4
  %7 = alloca i64, align 8
  %8 = alloca i8, align 1
  store ptr %0, ptr %4, align 8, !tbaa !20
  store ptr %1, ptr %5, align 8, !tbaa !53
  store i32 %2, ptr %6, align 4, !tbaa !23
  %9 = load ptr, ptr %4, align 8, !tbaa !20
  %10 = getelementptr inbounds nuw %struct.lua_State, ptr %9, i32 0, i32 17
  %11 = load i16, ptr %10, align 8, !tbaa !72
  %12 = add i16 %11, 1
  store i16 %12, ptr %10, align 8, !tbaa !72
  %13 = zext i16 %12 to i32
  %14 = icmp sge i32 %13, 200
  br i1 %14, label %15, label %17

15:                                               ; preds = %3
  %16 = load ptr, ptr %4, align 8, !tbaa !20
  call void @_Z16luaD_checkCstackP9lua_State(ptr noundef %16)
  br label %17

17:                                               ; preds = %15, %3
  call void @llvm.lifetime.start.p0(i64 8, ptr %7) #15
  %18 = load ptr, ptr %5, align 8, !tbaa !53
  %19 = load ptr, ptr %4, align 8, !tbaa !20
  %20 = getelementptr inbounds nuw %struct.lua_State, ptr %19, i32 0, i32 12
  %21 = load ptr, ptr %20, align 8, !tbaa !52
  %22 = ptrtoint ptr %18 to i64
  %23 = ptrtoint ptr %21 to i64
  %24 = sub i64 %22, %23
  store i64 %24, ptr %7, align 8, !tbaa !73
  %25 = load ptr, ptr %4, align 8, !tbaa !20
  %26 = load ptr, ptr %5, align 8, !tbaa !53
  %27 = load i32, ptr %6, align 4, !tbaa !23
  %28 = call noundef i32 @_Z12luau_precallP9lua_StateP10lua_TValuei(ptr noundef %25, ptr noundef %26, i32 noundef %27)
  %29 = icmp eq i32 %28, 0
  br i1 %29, label %30, label %65

30:                                               ; preds = %17
  %31 = load ptr, ptr %4, align 8, !tbaa !20
  %32 = getelementptr inbounds nuw %struct.lua_State, ptr %31, i32 0, i32 10
  %33 = load ptr, ptr %32, align 8, !tbaa !35
  %34 = getelementptr inbounds nuw %struct.CallInfo, ptr %33, i32 0, i32 5
  %35 = load i32, ptr %34, align 4, !tbaa !75
  %36 = or i32 %35, 1
  store i32 %36, ptr %34, align 4, !tbaa !75
  call void @llvm.lifetime.start.p0(i64 1, ptr %8) #15
  %37 = load ptr, ptr %4, align 8, !tbaa !20
  %38 = getelementptr inbounds nuw %struct.lua_State, ptr %37, i32 0, i32 5
  %39 = load i8, ptr %38, align 1, !tbaa !76, !range !13, !noundef !14
  %40 = trunc i8 %39 to i1
  %41 = zext i1 %40 to i8
  store i8 %41, ptr %8, align 1, !tbaa !11
  %42 = load ptr, ptr %4, align 8, !tbaa !20
  %43 = getelementptr inbounds nuw %struct.lua_State, ptr %42, i32 0, i32 5
  store i8 1, ptr %43, align 1, !tbaa !76
  %44 = load ptr, ptr %4, align 8, !tbaa !20
  %45 = getelementptr inbounds %struct.lua_State, ptr %44, i64 0
  %46 = getelementptr inbounds nuw %struct.GCheader, ptr %45, i32 0, i32 1
  %47 = load i8, ptr %46, align 1, !tbaa !65
  %48 = zext i8 %47 to i32
  %49 = and i32 %48, 4
  %50 = icmp ne i32 %49, 0
  br i1 %50, label %51, label %57

51:                                               ; preds = %30
  %52 = load ptr, ptr %4, align 8, !tbaa !20
  %53 = load ptr, ptr %4, align 8, !tbaa !20
  %54 = getelementptr inbounds %struct.lua_State, ptr %53, i64 0
  %55 = load ptr, ptr %4, align 8, !tbaa !20
  %56 = getelementptr inbounds nuw %struct.lua_State, ptr %55, i32 0, i32 22
  call void @_Z16luaC_barrierbackP9lua_StateP8GCObjectPS2_(ptr noundef %52, ptr noundef %54, ptr noundef %56)
  br label %57

57:                                               ; preds = %51, %30
  %58 = load ptr, ptr %4, align 8, !tbaa !20
  call void @_Z12luau_executeP9lua_State(ptr noundef %58)
  %59 = load i8, ptr %8, align 1, !tbaa !11, !range !13, !noundef !14
  %60 = trunc i8 %59 to i1
  br i1 %60, label %64, label %61

61:                                               ; preds = %57
  %62 = load ptr, ptr %4, align 8, !tbaa !20
  %63 = getelementptr inbounds nuw %struct.lua_State, ptr %62, i32 0, i32 5
  store i8 0, ptr %63, align 1, !tbaa !76
  br label %64

64:                                               ; preds = %61, %57
  call void @llvm.lifetime.end.p0(i64 1, ptr %8) #15
  br label %65

65:                                               ; preds = %64, %17
  %66 = load i32, ptr %6, align 4, !tbaa !23
  %67 = icmp ne i32 %66, -1
  br i1 %67, label %68, label %79

68:                                               ; preds = %65
  %69 = load ptr, ptr %4, align 8, !tbaa !20
  %70 = getelementptr inbounds nuw %struct.lua_State, ptr %69, i32 0, i32 12
  %71 = load ptr, ptr %70, align 8, !tbaa !52
  %72 = load i64, ptr %7, align 8, !tbaa !73
  %73 = getelementptr inbounds i8, ptr %71, i64 %72
  %74 = load i32, ptr %6, align 4, !tbaa !23
  %75 = sext i32 %74 to i64
  %76 = getelementptr inbounds %struct.lua_TValue, ptr %73, i64 %75
  %77 = load ptr, ptr %4, align 8, !tbaa !20
  %78 = getelementptr inbounds nuw %struct.lua_State, ptr %77, i32 0, i32 7
  store ptr %76, ptr %78, align 8, !tbaa !51
  br label %79

79:                                               ; preds = %68, %65
  %80 = load ptr, ptr %4, align 8, !tbaa !20
  %81 = getelementptr inbounds nuw %struct.lua_State, ptr %80, i32 0, i32 17
  %82 = load i16, ptr %81, align 8, !tbaa !72
  %83 = add i16 %82, -1
  store i16 %83, ptr %81, align 8, !tbaa !72
  %84 = load ptr, ptr %4, align 8, !tbaa !20
  %85 = getelementptr inbounds nuw %struct.lua_State, ptr %84, i32 0, i32 9
  %86 = load ptr, ptr %85, align 8, !tbaa !77
  %87 = getelementptr inbounds nuw %struct.global_State, ptr %86, i32 0, i32 9
  %88 = load i64, ptr %87, align 8, !tbaa !78
  %89 = load ptr, ptr %4, align 8, !tbaa !20
  %90 = getelementptr inbounds nuw %struct.lua_State, ptr %89, i32 0, i32 9
  %91 = load ptr, ptr %90, align 8, !tbaa !77
  %92 = getelementptr inbounds nuw %struct.global_State, ptr %91, i32 0, i32 8
  %93 = load i64, ptr %92, align 8, !tbaa !89
  %94 = icmp uge i64 %88, %93
  br i1 %94, label %95, label %98

95:                                               ; preds = %79
  %96 = load ptr, ptr %4, align 8, !tbaa !20
  %97 = call noundef i64 @_Z9luaC_stepP9lua_Stateb(ptr noundef %96, i1 noundef zeroext true)
  br label %99

98:                                               ; preds = %79
  br label %99

99:                                               ; preds = %98, %95
  call void @llvm.lifetime.end.p0(i64 8, ptr %7) #15
  ret void
}