; Function Attrs: mustprogress uwtable
define hidden void @_Z9luaD_callP9lua_StateP10lua_TValuei(ptr noundef %0, ptr noundef %1, i32 noundef %2) local_unnamed_addr #0 {
  %4 = getelementptr inbounds nuw i8, ptr %0, i64 80
  %5 = load i16, ptr %4, align 8, !tbaa !55
  %6 = add i16 %5, 1
  store i16 %6, ptr %4, align 8, !tbaa !55
  %7 = icmp ugt i16 %6, 199
  br i1 %7, label %8, label %_Z16luaD_checkCstackP9lua_State.exit

8:                                                ; preds = %3
  %9 = icmp eq i16 %6, 200
  br i1 %9, label %10, label %11

10:                                               ; preds = %8
  tail call void (ptr, ptr, ...) @_Z14luaG_runerrorLP9lua_StatePKcz(ptr noundef nonnull %0, ptr noundef nonnull @.str.4) #18
  unreachable

11:                                               ; preds = %8
  %12 = icmp ugt i16 %6, 224
  br i1 %12, label %13, label %_Z16luaD_checkCstackP9lua_State.exit

13:                                               ; preds = %11
  tail call void @_Z10luaD_throwP9lua_Statei(ptr noundef nonnull %0, i32 noundef 5) #18
  unreachable

_Z16luaD_checkCstackP9lua_State.exit:             ; preds = %11, %3
  %14 = getelementptr inbounds nuw i8, ptr %0, i64 48
  %15 = load ptr, ptr %14, align 8, !tbaa !38
  %16 = ptrtoint ptr %1 to i64
  %17 = ptrtoint ptr %15 to i64
  %18 = sub i64 %16, %17
  %19 = tail call noundef i32 @_Z12luau_precallP9lua_StateP10lua_TValuei(ptr noundef nonnull %0, ptr noundef %1, i32 noundef %2)
  %20 = icmp eq i32 %19, 0
  br i1 %20, label %21, label %37

21:                                               ; preds = %_Z16luaD_checkCstackP9lua_State.exit
  %22 = getelementptr inbounds nuw i8, ptr %0, i64 32
  %23 = load ptr, ptr %22, align 8, !tbaa !22
  %24 = getelementptr inbounds nuw i8, ptr %23, i64 36
  %25 = load i32, ptr %24, align 4, !tbaa !56
  %26 = or i32 %25, 1
  store i32 %26, ptr %24, align 4, !tbaa !56
  %27 = getelementptr inbounds nuw i8, ptr %0, i64 5
  %28 = load i8, ptr %27, align 1, !tbaa !57, !range !20, !noundef !21
  %29 = trunc nuw i8 %28 to i1
  store i8 1, ptr %27, align 1, !tbaa !57
  %30 = getelementptr inbounds nuw i8, ptr %0, i64 1
  %31 = load i8, ptr %30, align 1, !tbaa !42
  %32 = and i8 %31, 4
  %.not = icmp eq i8 %32, 0
  br i1 %.not, label %35, label %33

33:                                               ; preds = %21
  %34 = getelementptr inbounds nuw i8, ptr %0, i64 104
  tail call void @_Z16luaC_barrierbackP9lua_StateP8GCObjectPS2_(ptr noundef nonnull %0, ptr noundef nonnull %0, ptr noundef nonnull %34)
  br label %35

35:                                               ; preds = %33, %21
  tail call void @_Z12luau_executeP9lua_State(ptr noundef nonnull %0)
  br i1 %29, label %37, label %36

36:                                               ; preds = %35
  store i8 0, ptr %27, align 1, !tbaa !57
  br label %37

37:                                               ; preds = %35, %36, %_Z16luaD_checkCstackP9lua_State.exit
  %.not25 = icmp eq i32 %2, -1
  br i1 %.not25, label %44, label %38

38:                                               ; preds = %37
  %39 = load ptr, ptr %14, align 8, !tbaa !38
  %40 = getelementptr inbounds i8, ptr %39, i64 %18
  %41 = sext i32 %2 to i64
  %42 = getelementptr inbounds %struct.lua_TValue, ptr %40, i64 %41
  %43 = getelementptr inbounds nuw i8, ptr %0, i64 8
  store ptr %42, ptr %43, align 8, !tbaa !37
  br label %44

44:                                               ; preds = %38, %37
  %45 = load i16, ptr %4, align 8, !tbaa !55
  %46 = add i16 %45, -1
  store i16 %46, ptr %4, align 8, !tbaa !55
  %47 = getelementptr inbounds nuw i8, ptr %0, i64 24
  %48 = load ptr, ptr %47, align 8, !tbaa !58
  %49 = getelementptr inbounds nuw i8, ptr %48, i64 72
  %50 = load i64, ptr %49, align 8, !tbaa !59
  %51 = getelementptr inbounds nuw i8, ptr %48, i64 64
  %52 = load i64, ptr %51, align 8, !tbaa !71
  %.not26 = icmp ult i64 %50, %52
  br i1 %.not26, label %55, label %53

53:                                               ; preds = %44
  %54 = tail call noundef i64 @_Z9luaC_stepP9lua_Stateb(ptr noundef nonnull %0, i1 noundef zeroext true)
  br label %55

55:                                               ; preds = %44, %53
  ret void
}